; Function Attrs: nounwind uwtable
define internal range(i32 -22, 1) i32 @wsaud_write_init(ptr noundef %0) #0 {
  %2 = getelementptr inbounds nuw i8, ptr %0, i64 32
  %3 = load ptr, ptr %2, align 8, !tbaa !26
  %4 = getelementptr inbounds nuw i8, ptr %3, i64 144
  %5 = load i32, ptr %4, align 8, !tbaa !45
  %6 = and i32 %5, 1
  %.not = icmp eq i32 %6, 0
  br i1 %.not, label %7, label %8

7:                                                ; preds = %1
  tail call void (ptr, i32, ptr, ...) @av_log(ptr noundef nonnull %0, i32 noundef 16, ptr noundef nonnull @.str.3) #2
  br label %8

8:                                                ; preds = %1, %7
  %.0 = phi i32 [ -22, %7 ], [ 0, %1 ]
  ret i32 %.0
}